(lp1
(V\u000a\u4e8c\u7ef4\u6570\u7ec4\u4e2d\u7684\u67e5\u627e\u000a
S'/practice/abc3fe2ce8e146608e868a70efebf62e?tpId=13&tqId=11154&tPage=1&rp=1&ru=/ta/coding-interviews&qru=/ta/coding-interviews/question-ranking'
p2
tp3
a(V\u000a\u66ff\u6362\u7a7a\u683c\u000a
S'/practice/4060ac7e3e404ad1a894ef3e17650423?tpId=13&tqId=11155&tPage=1&rp=1&ru=/ta/coding-interviews&qru=/ta/coding-interviews/question-ranking'
p4
tp5
a(V\u000a\u4ece\u5c3e\u5230\u5934\u6253\u5370\u94fe\u8868\u000a
S'/practice/d0267f7f55b3412ba93bd35cfa8e8035?tpId=13&tqId=11156&tPage=1&rp=1&ru=/ta/coding-interviews&qru=/ta/coding-interviews/question-ranking'
p6
tp7
a(V\u000a\u91cd\u5efa\u4e8c\u53c9\u6811\u000a
S'/practice/8a19cbe657394eeaac2f6ea9b0f6fcf6?tpId=13&tqId=11157&tPage=1&rp=1&ru=/ta/coding-interviews&qru=/ta/coding-interviews/question-ranking'
p8
tp9
a(V\u000a\u7528\u4e24\u4e2a\u6808\u5b9e\u73b0\u961f\u5217\u000a
S'/practice/54275ddae22f475981afa2244dd448c6?tpId=13&tqId=11158&tPage=1&rp=1&ru=/ta/coding-interviews&qru=/ta/coding-interviews/question-ranking'
p10
tp11
a(V\u000a\u65cb\u8f6c\u6570\u7ec4\u7684\u6700\u5c0f\u6570\u5b57\u000a
S'/practice/9f3231a991af4f55b95579b44b7a01ba?tpId=13&tqId=11159&tPage=1&rp=1&ru=/ta/coding-interviews&qru=/ta/coding-interviews/question-ranking'
p12
tp13
a(V\u000a\u6590\u6ce2\u90a3\u5951\u6570\u5217\u000a
S'/practice/c6c7742f5ba7442aada113136ddea0c3?tpId=13&tqId=11160&tPage=1&rp=1&ru=/ta/coding-interviews&qru=/ta/coding-interviews/question-ranking'
p14
tp15
a(V\u000a\u8df3\u53f0\u9636\u000a
S'/practice/8c82a5b80378478f9484d87d1c5f12a4?tpId=13&tqId=11161&tPage=1&rp=1&ru=/ta/coding-interviews&qru=/ta/coding-interviews/question-ranking'
p16
tp17
a(V\u000a\u53d8\u6001\u8df3\u53f0\u9636\u000a
S'/practice/22243d016f6b47f2a6928b4313c85387?tpId=13&tqId=11162&tPage=1&rp=1&ru=/ta/coding-interviews&qru=/ta/coding-interviews/question-ranking'
p18
tp19
a(V\u000a\u77e9\u5f62\u8986\u76d6\u000a
S'/practice/72a5a919508a4251859fb2cfb987a0e6?tpId=13&tqId=11163&tPage=1&rp=1&ru=/ta/coding-interviews&qru=/ta/coding-interviews/question-ranking'
p20
tp21
a(V\u000a\u4e8c\u8fdb\u5236\u4e2d1\u7684\u4e2a\u6570\u000a
S'/practice/8ee967e43c2c4ec193b040ea7fbb10b8?tpId=13&tqId=11164&tPage=1&rp=1&ru=/ta/coding-interviews&qru=/ta/coding-interviews/question-ranking'
p22
tp23
a(V\u000a\u6570\u503c\u7684\u6574\u6570\u6b21\u65b9\u000a
S'/practice/1a834e5e3e1a4b7ba251417554e07c00?tpId=13&tqId=11165&tPage=1&rp=1&ru=/ta/coding-interviews&qru=/ta/coding-interviews/question-ranking'
p24
tp25
a(V\u000a\u8c03\u6574\u6570\u7ec4\u987a\u5e8f\u4f7f\u5947\u6570\u4f4d\u4e8e\u5076\u6570\u524d\u9762\u000a
S'/practice/beb5aa231adc45b2a5dcc5b62c93f593?tpId=13&tqId=11166&tPage=1&rp=1&ru=/ta/coding-interviews&qru=/ta/coding-interviews/question-ranking'
p26
tp27
a(V\u000a\u94fe\u8868\u4e2d\u5012\u6570\u7b2ck\u4e2a\u7ed3\u70b9\u000a
S'/practice/529d3ae5a407492994ad2a246518148a?tpId=13&tqId=11167&tPage=1&rp=1&ru=/ta/coding-interviews&qru=/ta/coding-interviews/question-ranking'
p28
tp29
a(V\u000a\u53cd\u8f6c\u94fe\u8868\u000a
S'/practice/75e878df47f24fdc9dc3e400ec6058ca?tpId=13&tqId=11168&tPage=1&rp=1&ru=/ta/coding-interviews&qru=/ta/coding-interviews/question-ranking'
p30
tp31
a(V\u000a\u5408\u5e76\u4e24\u4e2a\u6392\u5e8f\u7684\u94fe\u8868\u000a
S'/practice/d8b6b4358f774294a89de2a6ac4d9337?tpId=13&tqId=11169&tPage=1&rp=1&ru=/ta/coding-interviews&qru=/ta/coding-interviews/question-ranking'
p32
tp33
a(V\u000a\u6811\u7684\u5b50\u7ed3\u6784\u000a
S'/practice/6e196c44c7004d15b1610b9afca8bd88?tpId=13&tqId=11170&tPage=1&rp=1&ru=/ta/coding-interviews&qru=/ta/coding-interviews/question-ranking'
p34
tp35
a(V\u000a\u4e8c\u53c9\u6811\u7684\u955c\u50cf\u000a
S'/practice/564f4c26aa584921bc75623e48ca3011?tpId=13&tqId=11171&tPage=1&rp=1&ru=/ta/coding-interviews&qru=/ta/coding-interviews/question-ranking'
p36
tp37
a(V\u000a\u987a\u65f6\u9488\u6253\u5370\u77e9\u9635\u000a
S'/practice/9b4c81a02cd34f76be2659fa0d54342a?tpId=13&tqId=11172&tPage=1&rp=1&ru=/ta/coding-interviews&qru=/ta/coding-interviews/question-ranking'
p38
tp39
a(V\u000a\u5305\u542bmin\u51fd\u6570\u7684\u6808\u000a
S'/practice/4c776177d2c04c2494f2555c9fcc1e49?tpId=13&tqId=11173&tPage=1&rp=1&ru=/ta/coding-interviews&qru=/ta/coding-interviews/question-ranking'
p40
tp41
a(V\u000a\u6808\u7684\u538b\u5165\u3001\u5f39\u51fa\u5e8f\u5217\u000a
S'/practice/d77d11405cc7470d82554cb392585106?tpId=13&tqId=11174&tPage=2&rp=2&ru=/ta/coding-interviews&qru=/ta/coding-interviews/question-ranking'
p42
tp43
a(V\u000a\u4ece\u4e0a\u5f80\u4e0b\u6253\u5370\u4e8c\u53c9\u6811\u000a
S'/practice/7fe2212963db4790b57431d9ed259701?tpId=13&tqId=11175&tPage=2&rp=2&ru=/ta/coding-interviews&qru=/ta/coding-interviews/question-ranking'
p44
tp45
a(V\u000a\u4e8c\u53c9\u641c\u7d22\u6811\u7684\u540e\u5e8f\u904d\u5386\u5e8f\u5217\u000a
S'/practice/a861533d45854474ac791d90e447bafd?tpId=13&tqId=11176&tPage=2&rp=2&ru=/ta/coding-interviews&qru=/ta/coding-interviews/question-ranking'
p46
tp47
a(V\u000a\u4e8c\u53c9\u6811\u4e2d\u548c\u4e3a\u67d0\u4e00\u503c\u7684\u8def\u5f84\u000a
S'/practice/b736e784e3e34731af99065031301bca?tpId=13&tqId=11177&tPage=2&rp=2&ru=/ta/coding-interviews&qru=/ta/coding-interviews/question-ranking'
p48
tp49
a(V\u000a\u590d\u6742\u94fe\u8868\u7684\u590d\u5236\u000a
S'/practice/f836b2c43afc4b35ad6adc41ec941dba?tpId=13&tqId=11178&tPage=2&rp=2&ru=/ta/coding-interviews&qru=/ta/coding-interviews/question-ranking'
p50
tp51
a(V\u000a\u4e8c\u53c9\u641c\u7d22\u6811\u4e0e\u53cc\u5411\u94fe\u8868\u000a
S'/practice/947f6eb80d944a84850b0538bf0ec3a5?tpId=13&tqId=11179&tPage=2&rp=2&ru=/ta/coding-interviews&qru=/ta/coding-interviews/question-ranking'
p52
tp53
a(V\u000a\u5b57\u7b26\u4e32\u7684\u6392\u5217\u000a
S'/practice/fe6b651b66ae47d7acce78ffdd9a96c7?tpId=13&tqId=11180&tPage=2&rp=2&ru=/ta/coding-interviews&qru=/ta/coding-interviews/question-ranking'
p54
tp55
a(V\u000a\u6570\u7ec4\u4e2d\u51fa\u73b0\u6b21\u6570\u8d85\u8fc7\u4e00\u534a\u7684\u6570\u5b57\u000a
S'/practice/e8a1b01a2df14cb2b228b30ee6a92163?tpId=13&tqId=11181&tPage=2&rp=2&ru=/ta/coding-interviews&qru=/ta/coding-interviews/question-ranking'
p56
tp57
a(V\u000a\u6700\u5c0f\u7684K\u4e2a\u6570\u000a
S'/practice/6a296eb82cf844ca8539b57c23e6e9bf?tpId=13&tqId=11182&tPage=2&rp=2&ru=/ta/coding-interviews&qru=/ta/coding-interviews/question-ranking'
p58
tp59
a(V\u000a\u8fde\u7eed\u5b50\u6570\u7ec4\u7684\u6700\u5927\u548c\u000a
S'/practice/459bd355da1549fa8a49e350bf3df484?tpId=13&tqId=11183&tPage=2&rp=2&ru=/ta/coding-interviews&qru=/ta/coding-interviews/question-ranking'
p60
tp61
a(V\u000a\u6574\u6570\u4e2d1\u51fa\u73b0\u7684\u6b21\u6570\uff08\u4ece1\u5230n\u6574\u6570\u4e2d1\u51fa\u73b0\u7684\u6b21\u6570\uff09\u000a
S'/practice/bd7f978302044eee894445e244c7eee6?tpId=13&tqId=11184&tPage=2&rp=2&ru=/ta/coding-interviews&qru=/ta/coding-interviews/question-ranking'
p62
tp63
a(V\u000a\u628a\u6570\u7ec4\u6392\u6210\u6700\u5c0f\u7684\u6570\u000a
S'/practice/8fecd3f8ba334add803bf2a06af1b993?tpId=13&tqId=11185&tPage=2&rp=2&ru=/ta/coding-interviews&qru=/ta/coding-interviews/question-ranking'
p64
tp65
a(V\u000a\u4e11\u6570\u000a
S'/practice/6aa9e04fc3794f68acf8778237ba065b?tpId=13&tqId=11186&tPage=2&rp=2&ru=/ta/coding-interviews&qru=/ta/coding-interviews/question-ranking'
p66
tp67
a(V\u000a\u7b2c\u4e00\u4e2a\u53ea\u51fa\u73b0\u4e00\u6b21\u7684\u5b57\u7b26\u4f4d\u7f6e\u000a
S'/practice/1c82e8cf713b4bbeb2a5b31cf5b0417c?tpId=13&tqId=11187&tPage=2&rp=2&ru=/ta/coding-interviews&qru=/ta/coding-interviews/question-ranking'
p68
tp69
a(V\u000a\u6570\u7ec4\u4e2d\u7684\u9006\u5e8f\u5bf9\u000a
S'/practice/96bd6684e04a44eb80e6a68efc0ec6c5?tpId=13&tqId=11188&tPage=2&rp=2&ru=/ta/coding-interviews&qru=/ta/coding-interviews/question-ranking'
p70
tp71
a(V\u000a\u4e24\u4e2a\u94fe\u8868\u7684\u7b2c\u4e00\u4e2a\u516c\u5171\u7ed3\u70b9\u000a
S'/practice/6ab1d9a29e88450685099d45c9e31e46?tpId=13&tqId=11189&tPage=2&rp=2&ru=/ta/coding-interviews&qru=/ta/coding-interviews/question-ranking'
p72
tp73
a(V\u000a\u6570\u5b57\u5728\u6392\u5e8f\u6570\u7ec4\u4e2d\u51fa\u73b0\u7684\u6b21\u6570\u000a
S'/practice/70610bf967994b22bb1c26f9ae901fa2?tpId=13&tqId=11190&tPage=2&rp=2&ru=/ta/coding-interviews&qru=/ta/coding-interviews/question-ranking'
p74
tp75
a(V\u000a\u4e8c\u53c9\u6811\u7684\u6df1\u5ea6\u000a
S'/practice/435fb86331474282a3499955f0a41e8b?tpId=13&tqId=11191&tPage=2&rp=2&ru=/ta/coding-interviews&qru=/ta/coding-interviews/question-ranking'
p76
tp77
a(V\u000a\u5e73\u8861\u4e8c\u53c9\u6811\u000a
S'/practice/8b3b95850edb4115918ecebdf1b4d222?tpId=13&tqId=11192&tPage=2&rp=2&ru=/ta/coding-interviews&qru=/ta/coding-interviews/question-ranking'
p78
tp79
a(V\u000a\u6570\u7ec4\u4e2d\u53ea\u51fa\u73b0\u4e00\u6b21\u7684\u6570\u5b57\u000a
S'/practice/e02fdb54d7524710a7d664d082bb7811?tpId=13&tqId=11193&tPage=2&rp=2&ru=/ta/coding-interviews&qru=/ta/coding-interviews/question-ranking'
p80
tp81
a(V\u000a\u548c\u4e3aS\u7684\u8fde\u7eed\u6b63\u6570\u5e8f\u5217\u000a
S'/practice/c451a3fd84b64cb19485dad758a55ebe?tpId=13&tqId=11194&tPage=3&rp=3&ru=/ta/coding-interviews&qru=/ta/coding-interviews/question-ranking'
tp82
a(V\u000a\u548c\u4e3aS\u7684\u4e24\u4e2a\u6570\u5b57\u000a
S'/practice/390da4f7a00f44bea7c2f3d19491311b?tpId=13&tqId=11195&tPage=3&rp=3&ru=/ta/coding-interviews&qru=/ta/coding-interviews/question-ranking'
tp83
a(V\u000a\u5de6\u65cb\u8f6c\u5b57\u7b26\u4e32\u000a
S'/practice/12d959b108cb42b1ab72cef4d36af5ec?tpId=13&tqId=11196&tPage=3&rp=3&ru=/ta/coding-interviews&qru=/ta/coding-interviews/question-ranking'
tp84
a(V\u000a\u7ffb\u8f6c\u5355\u8bcd\u987a\u5e8f\u5217\u000a
S'/practice/3194a4f4cf814f63919d0790578d51f3?tpId=13&tqId=11197&tPage=3&rp=3&ru=/ta/coding-interviews&qru=/ta/coding-interviews/question-ranking'
tp85
a(V\u000a\u6251\u514b\u724c\u987a\u5b50\u000a
S'/practice/762836f4d43d43ca9deb273b3de8e1f4?tpId=13&tqId=11198&tPage=3&rp=3&ru=/ta/coding-interviews&qru=/ta/coding-interviews/question-ranking'
tp86
a(V\u000a\u5b69\u5b50\u4eec\u7684\u6e38\u620f(\u5706\u5708\u4e2d\u6700\u540e\u5269\u4e0b\u7684\u6570)\u000a
S'/practice/f78a359491e64a50bce2d89cff857eb6?tpId=13&tqId=11199&tPage=3&rp=3&ru=/ta/coding-interviews&qru=/ta/coding-interviews/question-ranking'
tp87
a(V\u000a\u6c421+2+3+...+n\u000a
S'/practice/7a0da8fc483247ff8800059e12d7caf1?tpId=13&tqId=11200&tPage=3&rp=3&ru=/ta/coding-interviews&qru=/ta/coding-interviews/question-ranking'
tp88
a(V\u000a\u4e0d\u7528\u52a0\u51cf\u4e58\u9664\u505a\u52a0\u6cd5\u000a
S'/practice/59ac416b4b944300b617d4f7f111b215?tpId=13&tqId=11201&tPage=3&rp=3&ru=/ta/coding-interviews&qru=/ta/coding-interviews/question-ranking'
tp89
a(V\u000a\u628a\u5b57\u7b26\u4e32\u8f6c\u6362\u6210\u6574\u6570\u000a
S'/practice/1277c681251b4372bdef344468e4f26e?tpId=13&tqId=11202&tPage=3&rp=3&ru=/ta/coding-interviews&qru=/ta/coding-interviews/question-ranking'
tp90
a(V\u000a\u6570\u7ec4\u4e2d\u91cd\u590d\u7684\u6570\u5b57\u000a
S'/practice/623a5ac0ea5b4e5f95552655361ae0a8?tpId=13&tqId=11203&tPage=3&rp=3&ru=/ta/coding-interviews&qru=/ta/coding-interviews/question-ranking'
tp91
a(V\u000a\u6784\u5efa\u4e58\u79ef\u6570\u7ec4\u000a
S'/practice/94a4d381a68b47b7a8bed86f2975db46?tpId=13&tqId=11204&tPage=3&rp=3&ru=/ta/coding-interviews&qru=/ta/coding-interviews/question-ranking'
tp92
a(V\u000a\u6b63\u5219\u8868\u8fbe\u5f0f\u5339\u914d\u000a
S'/practice/45327ae22b7b413ea21df13ee7d6429c?tpId=13&tqId=11205&tPage=3&rp=3&ru=/ta/coding-interviews&qru=/ta/coding-interviews/question-ranking'
tp93
a(V\u000a\u8868\u793a\u6570\u503c\u7684\u5b57\u7b26\u4e32\u000a
S'/practice/6f8c901d091949a5837e24bb82a731f2?tpId=13&tqId=11206&tPage=3&rp=3&ru=/ta/coding-interviews&qru=/ta/coding-interviews/question-ranking'
tp94
a(V\u000a\u5b57\u7b26\u6d41\u4e2d\u7b2c\u4e00\u4e2a\u4e0d\u91cd\u590d\u7684\u5b57\u7b26\u000a
S'/practice/00de97733b8e4f97a3fb5c680ee10720?tpId=13&tqId=11207&tPage=3&rp=3&ru=/ta/coding-interviews&qru=/ta/coding-interviews/question-ranking'
tp95
a(V\u000a\u94fe\u8868\u4e2d\u73af\u7684\u5165\u53e3\u7ed3\u70b9\u000a
S'/practice/253d2c59ec3e4bc68da16833f79a38e4?tpId=13&tqId=11208&tPage=3&rp=3&ru=/ta/coding-interviews&qru=/ta/coding-interviews/question-ranking'
tp96
a(V\u000a\u5220\u9664\u94fe\u8868\u4e2d\u91cd\u590d\u7684\u7ed3\u70b9\u000a
S'/practice/fc533c45b73a41b0b44ccba763f866ef?tpId=13&tqId=11209&tPage=3&rp=3&ru=/ta/coding-interviews&qru=/ta/coding-interviews/question-ranking'
tp97
a(V\u000a\u4e8c\u53c9\u6811\u7684\u4e0b\u4e00\u4e2a\u7ed3\u70b9\u000a
S'/practice/9023a0c988684a53960365b889ceaf5e?tpId=13&tqId=11210&tPage=3&rp=3&ru=/ta/coding-interviews&qru=/ta/coding-interviews/question-ranking'
tp98
a(V\u000a\u5bf9\u79f0\u7684\u4e8c\u53c9\u6811\u000a
S'/practice/ff05d44dfdb04e1d83bdbdab320efbcb?tpId=13&tqId=11211&tPage=3&rp=3&ru=/ta/coding-interviews&qru=/ta/coding-interviews/question-ranking'
tp99
a(V\u000a\u6309\u4e4b\u5b57\u5f62\u987a\u5e8f\u6253\u5370\u4e8c\u53c9\u6811\u000a
S'/practice/91b69814117f4e8097390d107d2efbe0?tpId=13&tqId=11212&tPage=3&rp=3&ru=/ta/coding-interviews&qru=/ta/coding-interviews/question-ranking'
tp100
a(V\u000a\u628a\u4e8c\u53c9\u6811\u6253\u5370\u6210\u591a\u884c\u000a
S'/practice/445c44d982d04483b04a54f298796288?tpId=13&tqId=11213&tPage=3&rp=3&ru=/ta/coding-interviews&qru=/ta/coding-interviews/question-ranking'
tp101
a(V\u000a\u5e8f\u5217\u5316\u4e8c\u53c9\u6811\u000a
S'/practice/cf7e25aa97c04cc1a68c8f040e71fb84?tpId=13&tqId=11214&tPage=4&rp=4&ru=/ta/coding-interviews&qru=/ta/coding-interviews/question-ranking'
p102
tp103
a(V\u000a\u4e8c\u53c9\u641c\u7d22\u6811\u7684\u7b2ck\u4e2a\u7ed3\u70b9\u000a
S'/practice/ef068f602dde4d28aab2b210e859150a?tpId=13&tqId=11215&tPage=4&rp=4&ru=/ta/coding-interviews&qru=/ta/coding-interviews/question-ranking'
p104
tp105
a(V\u000a\u6570\u636e\u6d41\u4e2d\u7684\u4e2d\u4f4d\u6570\u000a
S'/practice/9be0172896bd43948f8a32fb954e1be1?tpId=13&tqId=11216&tPage=4&rp=4&ru=/ta/coding-interviews&qru=/ta/coding-interviews/question-ranking'
p106
tp107
a(V\u000a\u6ed1\u52a8\u7a97\u53e3\u7684\u6700\u5927\u503c\u000a
S'/practice/1624bc35a45c42c0bc17d17fa0cba788?tpId=13&tqId=11217&tPage=4&rp=4&ru=/ta/coding-interviews&qru=/ta/coding-interviews/question-ranking'
p108
tp109
a(V\u000a\u77e9\u9635\u4e2d\u7684\u8def\u5f84\u000a
S'/practice/c61c6999eecb4b8f88a98f66b273a3cc?tpId=13&tqId=11218&tPage=4&rp=4&ru=/ta/coding-interviews&qru=/ta/coding-interviews/question-ranking'
p110
tp111
a(V\u000a\u673a\u5668\u4eba\u7684\u8fd0\u52a8\u8303\u56f4\u000a
S'/practice/6e5207314b5241fb83f2329e89fdecc8?tpId=13&tqId=11219&tPage=4&rp=4&ru=/ta/coding-interviews&qru=/ta/coding-interviews/question-ranking'
p112
tp113
a.